target datalayout = "e-m:e-p270:32:32-p271:32:32-p272:64:64-i64:64-i128:128-f80:128-n8:16:32:64-S128"
target triple = "x86_64-pc-linux-gnu"

%"class.ade::MemoryDescriptorRef" = type { ptr, %"struct.ade::util::DynMdSpan" }
%"struct.ade::util::DynMdSpan" = type { %"struct.std::array", i64 }
%"struct.std::array" = type { [6 x %"struct.ade::util::Span"] }
%"struct.ade::util::Span" = type { i32, i32 }
%"struct.ade::util::Range::IotaRange" = type { i64, i64 }
%"struct.ade::util::Range::IotaRange<unsigned long, 1>::iterator" = type { i64 }

; Function Attrs: mustprogress nounwind uwtable
define linkonce_odr hidden noundef nonnull align 4 dereferenceable(8) ptr @_ZNSt14__array_traitsIN3ade4util4SpanELm6EE6_S_refERA6_KS2_m(ptr noundef nonnull align 4 dereferenceable(48) %0, i64 noundef %1) #0 comdat align 2 {
  %3 = alloca ptr, align 8
  %4 = alloca i64, align 8
  store ptr %0, ptr %3, align 8, !tbaa !33
  store i64 %1, ptr %4, align 8, !tbaa !20
  %5 = load ptr, ptr %3, align 8, !tbaa !33
  %6 = load i64, ptr %4, align 8, !tbaa !20
  %7 = getelementptr inbounds nuw [6 x %"struct.ade::util::Span"], ptr %5, i64 0, i64 %6
  ret ptr %7
}

; Function Attrs: mustprogress nounwind uwtable
define linkonce_odr hidden void @_ZN3ade4util4SpanC2Ev(ptr noundef nonnull align 4 dereferenceable(8) %0) unnamed_addr #0 comdat align 2 {
  %2 = alloca ptr, align 8
  store ptr %0, ptr %2, align 8, !tbaa !33
  %3 = load ptr, ptr %2, align 8
  %4 = getelementptr inbounds nuw %"struct.ade::util::Span", ptr %3, i32 0, i32 0
  store i32 0, ptr %4, align 4, !tbaa !37
  %5 = getelementptr inbounds nuw %"struct.ade::util::Span", ptr %3, i32 0, i32 1
  store i32 0, ptr %5, align 4, !tbaa !35
  ret void
}

; Function Attrs: mustprogress nounwind uwtable
define linkonce_odr hidden noundef nonnull align 4 dereferenceable(8) ptr @_ZNSt5arrayIN3ade4util4SpanELm6EEixEm(ptr noundef nonnull align 4 dereferenceable(48) %0, i64 noundef %1) #0 comdat align 2 {
  %3 = alloca ptr, align 8
  %4 = alloca i64, align 8
  store ptr %0, ptr %3, align 8, !tbaa !61
  store i64 %1, ptr %4, align 8, !tbaa !20
  %5 = load ptr, ptr %3, align 8
  %6 = getelementptr inbounds nuw %"struct.std::array", ptr %5, i32 0, i32 0
  %7 = load i64, ptr %4, align 8, !tbaa !20
  %8 = call noundef nonnull align 4 dereferenceable(8) ptr @_ZNSt14__array_traitsIN3ade4util4SpanELm6EE6_S_refERA6_KS2_m(ptr noundef nonnull align 4 dereferenceable(48) %6, i64 noundef %7) #10
  ret ptr %8
}

; Function Attrs: inlinehint mustprogress nounwind uwtable
define linkonce_odr hidden void @_ZNK3ade4util5Range9IotaRangeImLi1EE5checkEv(ptr noundef nonnull align 8 dereferenceable(16) %0) #4 comdat align 2 {
  %2 = alloca ptr, align 8
  store ptr %0, ptr %2, align 8, !tbaa !18
  ret void
}

; Function Attrs: inlinehint mustprogress nounwind uwtable
define linkonce_odr hidden void @_ZNSt5arrayIN3ade4util4SpanELm6EEC2Ev(ptr noundef nonnull align 4 dereferenceable(48) %0) unnamed_addr #4 comdat align 2 {
  %2 = alloca ptr, align 8
  store ptr %0, ptr %2, align 8, !tbaa !61
  %3 = load ptr, ptr %2, align 8
  %4 = getelementptr inbounds nuw %"struct.std::array", ptr %3, i32 0, i32 0
  %5 = getelementptr inbounds [6 x %"struct.ade::util::Span"], ptr %4, i32 0, i32 0
  %6 = getelementptr inbounds %"struct.ade::util::Span", ptr %5, i64 6
  br label %7

7:                                                ; preds = %7, %1
  %8 = phi ptr [ %5, %1 ], [ %9, %7 ]
  call void @_ZN3ade4util4SpanC2Ev(ptr noundef nonnull align 4 dereferenceable(8) %8) #10
  %9 = getelementptr inbounds %"struct.ade::util::Span", ptr %8, i64 1
  %10 = icmp eq ptr %9, %6
  br i1 %10, label %11, label %7

11:                                               ; preds = %7
  ret void
}

; Function Attrs: inlinehint mustprogress nounwind uwtable
define linkonce_odr hidden noundef nonnull align 8 dereferenceable(8) ptr @_ZN3ade4util5Range9IotaRangeImLi1EE8iteratorppEv(ptr noundef nonnull align 8 dereferenceable(8) %0) #4 comdat align 2 {
  %2 = alloca ptr, align 8
  store ptr %0, ptr %2, align 8, !tbaa !31
  %3 = load ptr, ptr %2, align 8
  %4 = getelementptr inbounds nuw %"struct.ade::util::Range::IotaRange<unsigned long, 1>::iterator", ptr %3, i32 0, i32 0
  %5 = load i64, ptr %4, align 8, !tbaa !29
  %6 = add i64 %5, 1
  store i64 %6, ptr %4, align 8, !tbaa !29
  ret ptr %3
}

; Function Attrs: mustprogress nounwind uwtable
define linkonce_odr hidden void @_ZN3ade4util4SpanC2Eii(ptr noundef nonnull align 4 dereferenceable(8) %0, i32 noundef %1, i32 noundef %2) unnamed_addr #0 comdat align 2 {
  %4 = alloca ptr, align 8
  %5 = alloca i32, align 4
  %6 = alloca i32, align 4
  %7 = alloca i8, align 1
  store ptr %0, ptr %4, align 8, !tbaa !33
  store i32 %1, ptr %5, align 4, !tbaa !22
  store i32 %2, ptr %6, align 4, !tbaa !22
  %8 = load ptr, ptr %4, align 8
  %9 = getelementptr inbounds nuw %"struct.ade::util::Span", ptr %8, i32 0, i32 0
  %10 = load i32, ptr %5, align 4, !tbaa !22
  store i32 %10, ptr %9, align 4, !tbaa !37
  %11 = getelementptr inbounds nuw %"struct.ade::util::Span", ptr %8, i32 0, i32 1
  %12 = load i32, ptr %6, align 4, !tbaa !22
  store i32 %12, ptr %11, align 4, !tbaa !35
  br label %13

13:                                               ; preds = %3
  call void @llvm.lifetime.start.p0(i64 1, ptr %7) #10
  store i8 0, ptr %7, align 1, !tbaa !24
  call void @llvm.lifetime.end.p0(i64 1, ptr %7) #10
  br label %14

14:                                               ; preds = %13
  ret void
}

; Function Attrs: mustprogress nounwind uwtable
define linkonce_odr hidden noundef i32 @_ZNK3ade4util4Span6lengthEv(ptr noundef nonnull align 4 dereferenceable(8) %0) #0 comdat align 2 {
  %2 = alloca ptr, align 8
  store ptr %0, ptr %2, align 8, !tbaa !33
  %3 = load ptr, ptr %2, align 8
  %4 = getelementptr inbounds nuw %"struct.ade::util::Span", ptr %3, i32 0, i32 1
  %5 = load i32, ptr %4, align 4, !tbaa !35
  %6 = getelementptr inbounds nuw %"struct.ade::util::Span", ptr %3, i32 0, i32 0
  %7 = load i32, ptr %6, align 4, !tbaa !37
  %8 = sub nsw i32 %5, %7
  ret i32 %8
}

; Function Attrs: mustprogress nounwind uwtable
define linkonce_odr hidden noundef nonnull align 4 dereferenceable(8) ptr @_ZN3ade4util9DynMdSpanILm6EEixEm(ptr noundef nonnull align 8 dereferenceable(56) %0, i64 noundef %1) #0 comdat align 2 {
  %3 = alloca ptr, align 8
  %4 = alloca i64, align 8
  %5 = alloca i8, align 1
  store ptr %0, ptr %3, align 8, !tbaa !14
  store i64 %1, ptr %4, align 8, !tbaa !20
  %6 = load ptr, ptr %3, align 8
  br label %7

7:                                                ; preds = %2
  call void @llvm.lifetime.start.p0(i64 1, ptr %5) #10
  store i8 0, ptr %5, align 1, !tbaa !24
  call void @llvm.lifetime.end.p0(i64 1, ptr %5) #10
  br label %8

8:                                                ; preds = %7
  %9 = getelementptr inbounds nuw %"struct.ade::util::DynMdSpan", ptr %6, i32 0, i32 0
  %10 = load i64, ptr %4, align 8, !tbaa !20
  %11 = call noundef nonnull align 4 dereferenceable(8) ptr @_ZNSt5arrayIN3ade4util4SpanELm6EEixEm(ptr noundef nonnull align 4 dereferenceable(48) %9, i64 noundef %10) #10
  ret ptr %11
}

; Function Attrs: inlinehint mustprogress nounwind uwtable
define linkonce_odr hidden noundef nonnull align 8 dereferenceable(8) ptr @_ZNK3ade4util5Range9IotaRangeImLi1EE8iteratordeEv(ptr noundef nonnull align 8 dereferenceable(8) %0) #4 comdat align 2 {
  %2 = alloca ptr, align 8
  store ptr %0, ptr %2, align 8, !tbaa !31
  %3 = load ptr, ptr %2, align 8
  %4 = getelementptr inbounds nuw %"struct.ade::util::Range::IotaRange<unsigned long, 1>::iterator", ptr %3, i32 0, i32 0
  ret ptr %4
}

; Function Attrs: inlinehint mustprogress nounwind uwtable
define linkonce_odr hidden noundef zeroext i1 @_ZNK3ade4util5Range9IotaRangeImLi1EE8iteratorneERKS4_(ptr noundef nonnull align 8 dereferenceable(8) %0, ptr noundef nonnull align 8 dereferenceable(8) %1) #4 comdat align 2 {
  %3 = alloca ptr, align 8
  %4 = alloca ptr, align 8
  store ptr %0, ptr %3, align 8, !tbaa !31
  store ptr %1, ptr %4, align 8, !tbaa !31
  %5 = load ptr, ptr %3, align 8
  %6 = getelementptr inbounds nuw %"struct.ade::util::Range::IotaRange<unsigned long, 1>::iterator", ptr %5, i32 0, i32 0
  %7 = load i64, ptr %6, align 8, !tbaa !29
  %8 = load ptr, ptr %4, align 8, !tbaa !31
  %9 = getelementptr inbounds nuw %"struct.ade::util::Range::IotaRange<unsigned long, 1>::iterator", ptr %8, i32 0, i32 0
  %10 = load i64, ptr %9, align 8, !tbaa !29
  %11 = icmp ne i64 %7, %10
  ret i1 %11
}

; Function Attrs: inlinehint mustprogress nounwind uwtable
define linkonce_odr hidden i64 @_ZNK3ade4util5Range9IotaRangeImLi1EE3endEv(ptr noundef nonnull align 8 dereferenceable(16) %0) #4 comdat align 2 {
  %2 = alloca %"struct.ade::util::Range::IotaRange<unsigned long, 1>::iterator", align 8
  %3 = alloca ptr, align 8
  store ptr %0, ptr %3, align 8, !tbaa !18
  %4 = load ptr, ptr %3, align 8
  call void @_ZNK3ade4util5Range9IotaRangeImLi1EE5checkEv(ptr noundef nonnull align 8 dereferenceable(16) %4)
  %5 = getelementptr inbounds nuw %"struct.ade::util::Range::IotaRange<unsigned long, 1>::iterator", ptr %2, i32 0, i32 0
  %6 = getelementptr inbounds nuw %"struct.ade::util::Range::IotaRange", ptr %4, i32 0, i32 1
  %7 = load i64, ptr %6, align 8, !tbaa !28
  store i64 %7, ptr %5, align 8, !tbaa !29
  %8 = getelementptr inbounds nuw %"struct.ade::util::Range::IotaRange<unsigned long, 1>::iterator", ptr %2, i32 0, i32 0
  %9 = load i64, ptr %8, align 8
  ret i64 %9
}

; Function Attrs: inlinehint mustprogress uwtable
define linkonce_odr hidden i64 @_ZNK3ade4util5Range9IotaRangeImLi1EE5beginEv(ptr noundef nonnull align 8 dereferenceable(16) %0) #5 comdat align 2 {
  %2 = alloca %"struct.ade::util::Range::IotaRange<unsigned long, 1>::iterator", align 8
  %3 = alloca ptr, align 8
  store ptr %0, ptr %3, align 8, !tbaa !18
  %4 = load ptr, ptr %3, align 8
  call void @_ZNK3ade4util5Range9IotaRangeImLi1EE5checkEv(ptr noundef nonnull align 8 dereferenceable(16) %4)
  %5 = getelementptr inbounds nuw %"struct.ade::util::Range::IotaRange<unsigned long, 1>::iterator", ptr %2, i32 0, i32 0
  %6 = getelementptr inbounds nuw %"struct.ade::util::Range::IotaRange", ptr %4, i32 0, i32 0
  %7 = load i64, ptr %6, align 8, !tbaa !26
  store i64 %7, ptr %5, align 8, !tbaa !29
  %8 = getelementptr inbounds nuw %"struct.ade::util::Range::IotaRange<unsigned long, 1>::iterator", ptr %2, i32 0, i32 0
  %9 = load i64, ptr %8, align 8
  ret i64 %9
}

; Function Attrs: inlinehint mustprogress nounwind uwtable
define linkonce_odr hidden { i64, i64 } @_ZN3ade4util5Range4iotaImEENS1_9IotaRangeIT_Li1EEES4_(i64 noundef %0) #4 comdat {
  %2 = alloca %"struct.ade::util::Range::IotaRange", align 8
  %3 = alloca i64, align 8
  store i64 %0, ptr %3, align 8, !tbaa !20
  %4 = getelementptr inbounds nuw %"struct.ade::util::Range::IotaRange", ptr %2, i32 0, i32 0
  store i64 0, ptr %4, align 8, !tbaa !26
  %5 = getelementptr inbounds nuw %"struct.ade::util::Range::IotaRange", ptr %2, i32 0, i32 1
  %6 = load i64, ptr %3, align 8, !tbaa !20
  store i64 %6, ptr %5, align 8, !tbaa !28
  %7 = load { i64, i64 }, ptr %2, align 8
  ret { i64, i64 } %7
}

; Function Attrs: mustprogress nounwind uwtable
define linkonce_odr hidden void @_ZN3ade4util9DynMdSpanILm6EE5redimEm(ptr noundef nonnull align 8 dereferenceable(56) %0, i64 noundef %1) #0 comdat align 2 {
  %3 = alloca ptr, align 8
  %4 = alloca i64, align 8
  %5 = alloca i8, align 1
  store ptr %0, ptr %3, align 8, !tbaa !14
  store i64 %1, ptr %4, align 8, !tbaa !20
  %6 = load ptr, ptr %3, align 8
  br label %7

7:                                                ; preds = %2
  call void @llvm.lifetime.start.p0(i64 1, ptr %5) #10
  store i8 0, ptr %5, align 1, !tbaa !24
  call void @llvm.lifetime.end.p0(i64 1, ptr %5) #10
  br label %8

8:                                                ; preds = %7
  %9 = load i64, ptr %4, align 8, !tbaa !20
  %10 = getelementptr inbounds nuw %"struct.ade::util::DynMdSpan", ptr %6, i32 0, i32 1
  store i64 %9, ptr %10, align 8, !tbaa !16
  ret void
}

; Function Attrs: mustprogress nounwind uwtable
define linkonce_odr hidden noundef i64 @_ZNK3ade4util9DynMdSpanILm6EE10dims_countEv(ptr noundef nonnull align 8 dereferenceable(56) %0) #0 comdat align 2 {
  %2 = alloca ptr, align 8
  store ptr %0, ptr %2, align 8, !tbaa !14
  %3 = load ptr, ptr %2, align 8
  %4 = getelementptr inbounds nuw %"struct.ade::util::DynMdSpan", ptr %3, i32 0, i32 1
  %5 = load i64, ptr %4, align 8, !tbaa !16
  ret i64 %5
}

; Function Attrs: mustprogress nounwind uwtable
define linkonce_odr hidden void @_ZN3ade4util9DynMdSpanILm6EEC2Ev(ptr noundef nonnull align 8 dereferenceable(56) %0) unnamed_addr #0 comdat align 2 {
  %2 = alloca ptr, align 8
  store ptr %0, ptr %2, align 8, !tbaa !14
  %3 = load ptr, ptr %2, align 8
  %4 = getelementptr inbounds nuw %"struct.ade::util::DynMdSpan", ptr %3, i32 0, i32 0
  call void @_ZNSt5arrayIN3ade4util4SpanELm6EEC2Ev(ptr noundef nonnull align 4 dereferenceable(48) %4) #10
  %5 = getelementptr inbounds nuw %"struct.ade::util::DynMdSpan", ptr %3, i32 0, i32 1
  store i64 0, ptr %5, align 8, !tbaa !16
  ret void
}

; Function Attrs: mustprogress uwtable
define hidden void @_ZN3ade19MemoryDescriptorRefC2ERNS_20MemoryDescriptorViewE(ptr noundef nonnull align 8 dereferenceable(64) %0, ptr noundef nonnull align 8 dereferenceable(96) %1) unnamed_addr #1 align 2 {
  %3 = alloca ptr, align 8
  %4 = alloca ptr, align 8
  %5 = alloca %"struct.ade::util::DynMdSpan", align 8
  %6 = alloca ptr, align 8
  %7 = alloca %"struct.ade::util::Range::IotaRange", align 8
  %8 = alloca %"struct.ade::util::Range::IotaRange<unsigned long, 1>::iterator", align 8
  %9 = alloca %"struct.ade::util::Range::IotaRange<unsigned long, 1>::iterator", align 8
  %10 = alloca i64, align 8
  %11 = alloca %"struct.ade::util::Span", align 4
  %12 = alloca %"struct.ade::util::DynMdSpan", align 8
  store ptr %0, ptr %3, align 8, !tbaa !3
  store ptr %1, ptr %4, align 8, !tbaa !17
  %13 = load ptr, ptr %3, align 8
  %14 = getelementptr inbounds nuw %"class.ade::MemoryDescriptorRef", ptr %13, i32 0, i32 0
  %15 = load ptr, ptr %4, align 8, !tbaa !17
  store ptr %15, ptr %14, align 8, !tbaa !8
  %16 = getelementptr inbounds nuw %"class.ade::MemoryDescriptorRef", ptr %13, i32 0, i32 1
  call void @_ZN3ade4util9DynMdSpanILm6EEC2Ev(ptr noundef nonnull align 8 dereferenceable(56) %16) #10
  %17 = getelementptr inbounds nuw %"class.ade::MemoryDescriptorRef", ptr %13, i32 0, i32 1
  call void @llvm.lifetime.start.p0(i64 56, ptr %5) #10
  %18 = load ptr, ptr %4, align 8, !tbaa !17
  call void @_ZNK3ade20MemoryDescriptorView4spanEv(ptr dead_on_unwind writable sret(%"struct.ade::util::DynMdSpan") align 8 %5, ptr noundef nonnull align 8 dereferenceable(96) %18)
  %19 = call noundef i64 @_ZNK3ade4util9DynMdSpanILm6EE10dims_countEv(ptr noundef nonnull align 8 dereferenceable(56) %5)
  call void @_ZN3ade4util9DynMdSpanILm6EE5redimEm(ptr noundef nonnull align 8 dereferenceable(56) %17, i64 noundef %19)
  call void @llvm.lifetime.end.p0(i64 56, ptr %5) #10
  call void @llvm.lifetime.start.p0(i64 8, ptr %6) #10
  call void @llvm.lifetime.start.p0(i64 16, ptr %7) #10
  %20 = getelementptr inbounds nuw %"class.ade::MemoryDescriptorRef", ptr %13, i32 0, i32 1
  %21 = call noundef i64 @_ZNK3ade4util9DynMdSpanILm6EE10dims_countEv(ptr noundef nonnull align 8 dereferenceable(56) %20)
  %22 = call { i64, i64 } @_ZN3ade4util5Range4iotaImEENS1_9IotaRangeIT_Li1EEES4_(i64 noundef %21)
  %23 = getelementptr inbounds nuw { i64, i64 }, ptr %7, i32 0, i32 0
  %24 = extractvalue { i64, i64 } %22, 0
  store i64 %24, ptr %23, align 8
  %25 = getelementptr inbounds nuw { i64, i64 }, ptr %7, i32 0, i32 1
  %26 = extractvalue { i64, i64 } %22, 1
  store i64 %26, ptr %25, align 8
  store ptr %7, ptr %6, align 8, !tbaa !18
  call void @llvm.lifetime.start.p0(i64 8, ptr %8) #10
  %27 = load ptr, ptr %6, align 8, !tbaa !18
  %28 = call i64 @_ZNK3ade4util5Range9IotaRangeImLi1EE5beginEv(ptr noundef nonnull align 8 dereferenceable(16) %27)
  %29 = getelementptr inbounds nuw %"struct.ade::util::Range::IotaRange<unsigned long, 1>::iterator", ptr %8, i32 0, i32 0
  store i64 %28, ptr %29, align 8
  call void @llvm.lifetime.start.p0(i64 8, ptr %9) #10
  %30 = load ptr, ptr %6, align 8, !tbaa !18
  %31 = call i64 @_ZNK3ade4util5Range9IotaRangeImLi1EE3endEv(ptr noundef nonnull align 8 dereferenceable(16) %30)
  %32 = getelementptr inbounds nuw %"struct.ade::util::Range::IotaRange<unsigned long, 1>::iterator", ptr %9, i32 0, i32 0
  store i64 %31, ptr %32, align 8
  br label %33

33:                                               ; preds = %46, %2
  %34 = call noundef zeroext i1 @_ZNK3ade4util5Range9IotaRangeImLi1EE8iteratorneERKS4_(ptr noundef nonnull align 8 dereferenceable(8) %8, ptr noundef nonnull align 8 dereferenceable(8) %9)
  br i1 %34, label %36, label %35

35:                                               ; preds = %33
  call void @llvm.lifetime.end.p0(i64 8, ptr %9) #10
  call void @llvm.lifetime.end.p0(i64 8, ptr %8) #10
  call void @llvm.lifetime.end.p0(i64 16, ptr %7) #10
  call void @llvm.lifetime.end.p0(i64 8, ptr %6) #10
  br label %48

36:                                               ; preds = %33
  call void @llvm.lifetime.start.p0(i64 8, ptr %10) #10
  %37 = call noundef nonnull align 8 dereferenceable(8) ptr @_ZNK3ade4util5Range9IotaRangeImLi1EE8iteratordeEv(ptr noundef nonnull align 8 dereferenceable(8) %8)
  %38 = load i64, ptr %37, align 8, !tbaa !20
  store i64 %38, ptr %10, align 8, !tbaa !20
  call void @llvm.lifetime.start.p0(i64 8, ptr %11) #10
  call void @llvm.lifetime.start.p0(i64 56, ptr %12) #10
  %39 = load ptr, ptr %4, align 8, !tbaa !17
  call void @_ZNK3ade20MemoryDescriptorView4spanEv(ptr dead_on_unwind writable sret(%"struct.ade::util::DynMdSpan") align 8 %12, ptr noundef nonnull align 8 dereferenceable(96) %39)
  %40 = load i64, ptr %10, align 8, !tbaa !20
  %41 = call noundef nonnull align 4 dereferenceable(8) ptr @_ZN3ade4util9DynMdSpanILm6EEixEm(ptr noundef nonnull align 8 dereferenceable(56) %12, i64 noundef %40)
  %42 = call noundef i32 @_ZNK3ade4util4Span6lengthEv(ptr noundef nonnull align 4 dereferenceable(8) %41)
  call void @_ZN3ade4util4SpanC2Eii(ptr noundef nonnull align 4 dereferenceable(8) %11, i32 noundef 0, i32 noundef %42)
  %43 = getelementptr inbounds nuw %"class.ade::MemoryDescriptorRef", ptr %13, i32 0, i32 1
  %44 = load i64, ptr %10, align 8, !tbaa !20
  %45 = call noundef nonnull align 4 dereferenceable(8) ptr @_ZN3ade4util9DynMdSpanILm6EEixEm(ptr noundef nonnull align 8 dereferenceable(56) %43, i64 noundef %44)
  call void @llvm.memcpy.p0.p0.i64(ptr align 4 %45, ptr align 4 %11, i64 8, i1 false), !tbaa.struct !21
  call void @llvm.lifetime.end.p0(i64 56, ptr %12) #10
  call void @llvm.lifetime.end.p0(i64 8, ptr %11) #10
  call void @llvm.lifetime.end.p0(i64 8, ptr %10) #10
  br label %46

46:                                               ; preds = %36
  %47 = call noundef nonnull align 8 dereferenceable(8) ptr @_ZN3ade4util5Range9IotaRangeImLi1EE8iteratorppEv(ptr noundef nonnull align 8 dereferenceable(8) %8)
  br label %33

48:                                               ; preds = %35
  ret void
}