; Function Attrs: mustprogress uwtable
define hidden void @_ZN3ade19MemoryDescriptorRefC2ERNS_20MemoryDescriptorViewE(ptr noundef nonnull writeonly align 8 captures(none) dereferenceable(64) initializes((0, 64)) %0, ptr noundef nonnull align 8 dereferenceable(96) %1) unnamed_addr #1 align 2 {
  %3 = alloca %"struct.ade::util::DynMdSpan", align 8
  %4 = alloca %"struct.ade::util::DynMdSpan", align 8
  store ptr %1, ptr %0, align 8, !tbaa !3
  %5 = getelementptr inbounds nuw i8, ptr %0, i64 8
  tail call void @llvm.memset.p0.i64(ptr noundef nonnull align 8 dereferenceable(56) %5, i8 0, i64 56, i1 false)
  call void @llvm.lifetime.start.p0(i64 56, ptr nonnull %3) #13
  call void @_ZNK3ade20MemoryDescriptorView4spanEv(ptr dead_on_unwind nonnull writable sret(%"struct.ade::util::DynMdSpan") align 8 %3, ptr noundef nonnull align 8 dereferenceable(96) %1)
  %6 = getelementptr inbounds nuw i8, ptr %3, i64 48
  %7 = load i64, ptr %6, align 8, !tbaa !12
  %8 = getelementptr inbounds nuw i8, ptr %0, i64 56
  store i64 %7, ptr %8, align 8, !tbaa !12
  call void @llvm.lifetime.end.p0(i64 56, ptr nonnull %3) #13
  %.not13 = icmp eq i64 %7, 0
  br i1 %.not13, label %._crit_edge, label %.lr.ph

._crit_edge:                                      ; preds = %.lr.ph, %2
  ret void

.lr.ph:                                           ; preds = %2, %.lr.ph
  %.sroa.08.014 = phi i64 [ %15, %.lr.ph ], [ 0, %2 ]
  call void @llvm.lifetime.start.p0(i64 56, ptr nonnull %4) #13
  call void @_ZNK3ade20MemoryDescriptorView4spanEv(ptr dead_on_unwind nonnull writable sret(%"struct.ade::util::DynMdSpan") align 8 %4, ptr noundef nonnull align 8 dereferenceable(96) %1)
  %9 = getelementptr inbounds nuw [6 x %"struct.ade::util::Span"], ptr %4, i64 0, i64 %.sroa.08.014
  %10 = getelementptr inbounds nuw i8, ptr %9, i64 4
  %11 = load i32, ptr %10, align 4, !tbaa !13
  %12 = load i32, ptr %9, align 8, !tbaa !16
  %13 = sub nsw i32 %11, %12
  %14 = getelementptr inbounds nuw [6 x %"struct.ade::util::Span"], ptr %5, i64 0, i64 %.sroa.08.014
  %.sroa.4.0.insert.ext = zext i32 %13 to i64
  %.sroa.4.0.insert.shift = shl nuw i64 %.sroa.4.0.insert.ext, 32
  store i64 %.sroa.4.0.insert.shift, ptr %14, align 8
  call void @llvm.lifetime.end.p0(i64 56, ptr nonnull %4) #13
  %15 = add nuw i64 %.sroa.08.014, 1
  %.not = icmp eq i64 %15, %7
  br i1 %.not, label %._crit_edge, label %.lr.ph
}